target datalayout = "e-m:e-p270:32:32-p271:32:32-p272:64:64-i64:64-i128:128-f80:128-n8:16:32:64-S128"
target triple = "x86_64-pc-linux-gnu"

%struct._address = type { i32, i32, ptr, ptr }
%struct.comp_req_list_entry = type { i32, ptr, ptr, i32, ptr, %struct._address, i32 }

; Function Attrs: inlinehint nounwind null_pointer_is_valid sspstrong uwtable
define internal void @clear_address(ptr noundef %0) #12 {
  %2 = alloca ptr, align 8
  store ptr %0, ptr %2, align 8
  %3 = load ptr, ptr %2, align 8
  %4 = getelementptr inbounds nuw %struct._address, ptr %3, i32 0, i32 0
  store i32 0, ptr %4, align 8
  %5 = load ptr, ptr %2, align 8
  %6 = getelementptr inbounds nuw %struct._address, ptr %5, i32 0, i32 1
  store i32 0, ptr %6, align 4
  %7 = load ptr, ptr %2, align 8
  %8 = getelementptr inbounds nuw %struct._address, ptr %7, i32 0, i32 2
  store ptr null, ptr %8, align 8
  %9 = load ptr, ptr %2, align 8
  %10 = getelementptr inbounds nuw %struct._address, ptr %9, i32 0, i32 3
  store ptr null, ptr %10, align 8
  ret void
}

; Function Attrs: inlinehint null_pointer_is_valid sspstrong uwtable
define internal void @alloc_address_wmem(ptr noundef %0, ptr noundef %1, i32 noundef %2, i32 noundef %3, ptr noundef %4) #11 {
  %6 = alloca ptr, align 8
  %7 = alloca ptr, align 8
  %8 = alloca i32, align 4
  %9 = alloca i32, align 4
  %10 = alloca ptr, align 8
  store ptr %0, ptr %6, align 8
  store ptr %1, ptr %7, align 8
  store i32 %2, ptr %8, align 4
  store i32 %3, ptr %9, align 4
  store ptr %4, ptr %10, align 8
  br label %11

11:                                               ; preds = %5
  br label %12

12:                                               ; preds = %11
  %13 = load ptr, ptr %7, align 8
  call void @clear_address(ptr noundef %13)
  %14 = load i32, ptr %8, align 4
  %15 = load ptr, ptr %7, align 8
  %16 = getelementptr inbounds nuw %struct._address, ptr %15, i32 0, i32 0
  store i32 %14, ptr %16, align 8
  %17 = load i32, ptr %9, align 4
  %18 = icmp eq i32 %17, 0
  br i1 %18, label %19, label %22

19:                                               ; preds = %12
  br label %20

20:                                               ; preds = %19
  br label %21

21:                                               ; preds = %20
  br label %39

22:                                               ; preds = %12
  br label %23

23:                                               ; preds = %22
  br label %24

24:                                               ; preds = %23
  br label %25

25:                                               ; preds = %24
  br label %26

26:                                               ; preds = %25
  %27 = load ptr, ptr %6, align 8
  %28 = load ptr, ptr %10, align 8
  %29 = load i32, ptr %9, align 4
  %30 = sext i32 %29 to i64
  %31 = call ptr @wmem_memdup(ptr noundef %27, ptr noundef %28, i64 noundef %30) #17
  %32 = load ptr, ptr %7, align 8
  %33 = getelementptr inbounds nuw %struct._address, ptr %32, i32 0, i32 3
  store ptr %31, ptr %33, align 8
  %34 = load ptr, ptr %7, align 8
  %35 = getelementptr inbounds nuw %struct._address, ptr %34, i32 0, i32 2
  store ptr %31, ptr %35, align 8
  %36 = load i32, ptr %9, align 4
  %37 = load ptr, ptr %7, align 8
  %38 = getelementptr inbounds nuw %struct._address, ptr %37, i32 0, i32 1
  store i32 %36, ptr %38, align 4
  br label %39

39:                                               ; preds = %26, %21
  ret void
}

; Function Attrs: inlinehint null_pointer_is_valid sspstrong uwtable
define internal void @copy_address_wmem(ptr noundef %0, ptr noundef %1, ptr noundef %2) #11 {
  %4 = alloca ptr, align 8
  %5 = alloca ptr, align 8
  %6 = alloca ptr, align 8
  store ptr %0, ptr %4, align 8
  store ptr %1, ptr %5, align 8
  store ptr %2, ptr %6, align 8
  %7 = load ptr, ptr %4, align 8
  %8 = load ptr, ptr %5, align 8
  %9 = load ptr, ptr %6, align 8
  %10 = getelementptr inbounds nuw %struct._address, ptr %9, i32 0, i32 0
  %11 = load i32, ptr %10, align 8
  %12 = load ptr, ptr %6, align 8
  %13 = getelementptr inbounds nuw %struct._address, ptr %12, i32 0, i32 1
  %14 = load i32, ptr %13, align 4
  %15 = load ptr, ptr %6, align 8
  %16 = getelementptr inbounds nuw %struct._address, ptr %15, i32 0, i32 2
  %17 = load ptr, ptr %16, align 8
  call void @alloc_address_wmem(ptr noundef %7, ptr noundef %8, i32 noundef %11, i32 noundef %14, ptr noundef %17)
  ret void
}

; Function Attrs: null_pointer_is_valid sspstrong uwtable
define internal ptr @insert_in_comp_req_list(ptr noundef %0, i32 noundef %1, i32 noundef %2, ptr noundef %3, ptr noundef %4, ptr noundef %5, i32 noundef %6) #0 {
  %8 = alloca ptr, align 8
  %9 = alloca i32, align 4
  %10 = alloca i32, align 4
  %11 = alloca ptr, align 8
  %12 = alloca ptr, align 8
  %13 = alloca ptr, align 8
  %14 = alloca i32, align 4
  %15 = alloca ptr, align 8
  store ptr %0, ptr %8, align 8
  store i32 %1, ptr %9, align 4
  store i32 %2, ptr %10, align 4
  store ptr %3, ptr %11, align 8
  store ptr %4, ptr %12, align 8
  store ptr %5, ptr %13, align 8
  store i32 %6, ptr %14, align 4
  call void @llvm.lifetime.start.p0(i64 8, ptr %15) #14
  %16 = call ptr @wmem_file_scope()
  %17 = call noalias ptr @wmem_alloc(ptr noundef %16, i64 noundef 72) #15
  store ptr %17, ptr %15, align 8
  %18 = load i32, ptr %9, align 4
  %19 = load ptr, ptr %15, align 8
  %20 = getelementptr inbounds nuw %struct.comp_req_list_entry, ptr %19, i32 0, i32 0
  store i32 %18, ptr %20, align 8
  %21 = load i32, ptr %10, align 4
  %22 = load ptr, ptr %15, align 8
  %23 = getelementptr inbounds nuw %struct.comp_req_list_entry, ptr %22, i32 0, i32 3
  store i32 %21, ptr %23, align 8
  %24 = load ptr, ptr %12, align 8
  %25 = load ptr, ptr %15, align 8
  %26 = getelementptr inbounds nuw %struct.comp_req_list_entry, ptr %25, i32 0, i32 2
  store ptr %24, ptr %26, align 8
  %27 = call ptr @wmem_file_scope()
  %28 = load ptr, ptr %11, align 8
  %29 = call noalias ptr @wmem_strdup(ptr noundef %27, ptr noundef %28)
  %30 = load ptr, ptr %15, align 8
  %31 = getelementptr inbounds nuw %struct.comp_req_list_entry, ptr %30, i32 0, i32 1
  store ptr %29, ptr %31, align 8
  %32 = load ptr, ptr %15, align 8
  %33 = getelementptr inbounds nuw %struct.comp_req_list_entry, ptr %32, i32 0, i32 4
  store ptr null, ptr %33, align 8
  %34 = load i32, ptr %14, align 4
  %35 = load ptr, ptr %15, align 8
  %36 = getelementptr inbounds nuw %struct.comp_req_list_entry, ptr %35, i32 0, i32 6
  store i32 %34, ptr %36, align 8
  %37 = call ptr @wmem_file_scope()
  %38 = load ptr, ptr %15, align 8
  %39 = getelementptr inbounds nuw %struct.comp_req_list_entry, ptr %38, i32 0, i32 5
  %40 = load ptr, ptr %13, align 8
  call void @copy_address_wmem(ptr noundef %37, ptr noundef %39, ptr noundef %40)
  %41 = load ptr, ptr %8, align 8
  %42 = load ptr, ptr %15, align 8
  %43 = call ptr @g_list_append(ptr noundef %41, ptr noundef %42)
  call void @llvm.lifetime.end.p0(i64 8, ptr %15) #14
  ret ptr %43
}