; Function Attrs: null_pointer_is_valid sspstrong uwtable
define internal fastcc ptr @insert_in_comp_req_list(ptr noundef %0, i32 noundef %1, i32 noundef %2, ptr noundef %3, ptr noundef readonly captures(none) %4, i32 noundef %5) unnamed_addr #0 {
  %7 = tail call ptr @wmem_file_scope()
  %8 = tail call noalias dereferenceable_or_null(72) ptr @wmem_alloc(ptr noundef %7, i64 noundef 72) #18
  store i32 %1, ptr %8, align 8
  %9 = getelementptr inbounds nuw i8, ptr %8, i64 24
  store i32 %2, ptr %9, align 8
  %10 = getelementptr inbounds nuw i8, ptr %8, i64 16
  store ptr null, ptr %10, align 8
  %11 = tail call ptr @wmem_file_scope()
  %12 = tail call noalias ptr @wmem_strdup(ptr noundef %11, ptr noundef %3)
  %13 = getelementptr inbounds nuw i8, ptr %8, i64 8
  store ptr %12, ptr %13, align 8
  %14 = getelementptr inbounds nuw i8, ptr %8, i64 32
  store ptr null, ptr %14, align 8
  %15 = getelementptr inbounds nuw i8, ptr %8, i64 64
  store i32 %5, ptr %15, align 8
  %16 = tail call ptr @wmem_file_scope()
  %17 = getelementptr inbounds nuw i8, ptr %8, i64 40
  %18 = load i32, ptr %4, align 8
  %19 = getelementptr inbounds nuw i8, ptr %4, i64 4
  %20 = load i32, ptr %19, align 4
  %21 = getelementptr inbounds nuw i8, ptr %4, i64 8
  %22 = load ptr, ptr %21, align 8
  tail call void @llvm.memset.p0.i64(ptr noundef nonnull align 8 dereferenceable(24) %17, i8 0, i64 24, i1 false)
  store i32 %18, ptr %17, align 8
  %23 = icmp eq i32 %20, 0
  br i1 %23, label %copy_address_wmem.exit, label %24

24:                                               ; preds = %6
  %25 = sext i32 %20 to i64
  %26 = tail call ptr @wmem_memdup(ptr noundef %16, ptr noundef %22, i64 noundef %25) #21
  %27 = getelementptr inbounds nuw i8, ptr %8, i64 56
  store ptr %26, ptr %27, align 8
  %28 = getelementptr inbounds nuw i8, ptr %8, i64 48
  store ptr %26, ptr %28, align 8
  %29 = getelementptr inbounds nuw i8, ptr %8, i64 44
  store i32 %20, ptr %29, align 4
  br label %copy_address_wmem.exit

copy_address_wmem.exit:                           ; preds = %6, %24
  %30 = tail call ptr @g_list_append(ptr noundef %0, ptr noundef %8)
  ret ptr %30
}